target datalayout = "e-m:e-p270:32:32-p271:32:32-p272:64:64-i64:64-i128:128-f80:128-n8:16:32:64-S128"
target triple = "x86_64-pc-linux-gnu"

%"class.cvc5::internal::FatalStream" = type { i8 }

@.str = private unnamed_addr constant [130 x i8] c"generated/home/dtcxzyw/WorkSpace/Projects/compilers/llvm-opt-benchmark/bench/cvc5/cvc5/src/theory/arith/linear/approx_simplex.cpp\00", align 1
@.str.1 = private unnamed_addr constant [32 x i8] c"Unimplemented code encountered \00", align 1
@.str.2 = private unnamed_addr constant [41 x i8] c"Approximate simplex solver requires GLPK\00", align 1

; Function Attrs: mustprogress uwtable
define hidden noundef ptr @_ZN4cvc58internal6theory5arith6linear18ApproximateSimplex26mkApproximateSimplexSolverERKNS3_14ArithVariablesERNS3_7TreeLogERNS3_21ApproximateStatisticsE(ptr noundef nonnull align 1 %0, ptr noundef nonnull align 8 dereferenceable(133) %1, ptr noundef nonnull align 8 dereferenceable(40) %2) #4 align 2 personality ptr @__gxx_personality_v0 {
  %4 = alloca ptr, align 8
  %5 = alloca ptr, align 8
  %6 = alloca ptr, align 8
  %7 = alloca %"class.cvc5::internal::FatalStream", align 1
  %8 = alloca ptr, align 8
  %9 = alloca i32, align 4
  store ptr %0, ptr %4, align 8, !tbaa !3
  store ptr %1, ptr %5, align 8, !tbaa !8
  store ptr %2, ptr %6, align 8, !tbaa !10
  call void @llvm.lifetime.start.p0(i64 1, ptr %7) #3
  call void @_ZN4cvc58internal11FatalStreamC1EPKcS3_i(ptr noundef nonnull align 1 dereferenceable(1) %7, ptr noundef @__PRETTY_FUNCTION__._ZN4cvc58internal6theory5arith6linear18ApproximateSimplex26mkApproximateSimplexSolverERKNS3_14ArithVariablesERNS3_7TreeLogERNS3_21ApproximateStatisticsE, ptr noundef @.str, i32 noundef 3151)
  %10 = invoke noundef nonnull align 8 dereferenceable(8) ptr @_ZN4cvc58internal11FatalStream6streamEv(ptr noundef nonnull align 1 dereferenceable(1) %7)
          to label %11 unwind label %16

11:                                               ; preds = %3
  %12 = invoke noundef nonnull align 8 dereferenceable(8) ptr @_ZStlsISt11char_traitsIcEERSt13basic_ostreamIcT_ES5_PKc(ptr noundef nonnull align 8 dereferenceable(8) %10, ptr noundef @.str.1)
          to label %13 unwind label %16

13:                                               ; preds = %11
  %14 = invoke noundef nonnull align 8 dereferenceable(8) ptr @_ZStlsISt11char_traitsIcEERSt13basic_ostreamIcT_ES5_PKc(ptr noundef nonnull align 8 dereferenceable(8) %12, ptr noundef @.str.2)
          to label %15 unwind label %16

15:                                               ; preds = %13
  call void @_ZN4cvc58internal11FatalStreamD1Ev(ptr noundef nonnull align 1 dereferenceable(1) %7) #17
  unreachable

16:                                               ; preds = %13, %11, %3
  %17 = landingpad { ptr, i32 }
          cleanup
  %18 = extractvalue { ptr, i32 } %17, 0
  store ptr %18, ptr %8, align 8
  %19 = extractvalue { ptr, i32 } %17, 1
  store i32 %19, ptr %9, align 4
  call void @_ZN4cvc58internal11FatalStreamD1Ev(ptr noundef nonnull align 1 dereferenceable(1) %7) #17
  unreachable

20:                                               ; No predecessors!
  call void @llvm.lifetime.end.p0(i64 1, ptr %7) #3
  br label %21

21:                                               ; preds = %20
  %22 = load ptr, ptr %8, align 8
  %23 = load i32, ptr %9, align 4
  %24 = insertvalue { ptr, i32 } poison, ptr %22, 0
  %25 = insertvalue { ptr, i32 } %24, i32 %23, 1
  resume { ptr, i32 } %25
}