; Function Attrs: mustprogress noreturn uwtable
define hidden noalias noundef nonnull ptr @_ZN4cvc58internal6theory5arith6linear18ApproximateSimplex26mkApproximateSimplexSolverERKNS3_14ArithVariablesERNS3_7TreeLogERNS3_21ApproximateStatisticsE(ptr noundef nonnull readnone align 1 captures(none) %0, ptr noundef nonnull readnone align 8 captures(none) dereferenceable(133) %1, ptr noundef nonnull readnone align 8 captures(none) dereferenceable(40) %2) local_unnamed_addr #3 align 2 personality ptr @__gxx_personality_v0 {
  %4 = alloca %"class.cvc5::internal::FatalStream", align 1
  call void @llvm.lifetime.start.p0(i64 1, ptr nonnull %4) #18
  call void @_ZN4cvc58internal11FatalStreamC1EPKcS3_i(ptr noundef nonnull align 1 dereferenceable(1) %4, ptr noundef nonnull @__PRETTY_FUNCTION__._ZN4cvc58internal6theory5arith6linear18ApproximateSimplex26mkApproximateSimplexSolverERKNS3_14ArithVariablesERNS3_7TreeLogERNS3_21ApproximateStatisticsE, ptr noundef nonnull @.str, i32 noundef 3151)
  %5 = invoke noundef nonnull align 8 dereferenceable(8) ptr @_ZN4cvc58internal11FatalStream6streamEv(ptr noundef nonnull align 1 dereferenceable(1) %4)
          to label %6 unwind label %10

6:                                                ; preds = %3
  %7 = invoke noundef nonnull align 8 dereferenceable(8) ptr @_ZSt16__ostream_insertIcSt11char_traitsIcEERSt13basic_ostreamIT_T0_ES6_PKS3_l(ptr noundef nonnull align 8 dereferenceable(8) %5, ptr noundef nonnull @.str.1, i64 noundef 31)
          to label %_ZStlsISt11char_traitsIcEERSt13basic_ostreamIcT_ES5_PKc.exit unwind label %10

_ZStlsISt11char_traitsIcEERSt13basic_ostreamIcT_ES5_PKc.exit: ; preds = %6
  %8 = invoke noundef nonnull align 8 dereferenceable(8) ptr @_ZStlsISt11char_traitsIcEERSt13basic_ostreamIcT_ES5_PKc(ptr noundef nonnull align 8 dereferenceable(8) %5, ptr noundef nonnull @.str.2)
          to label %9 unwind label %10

9:                                                ; preds = %_ZStlsISt11char_traitsIcEERSt13basic_ostreamIcT_ES5_PKc.exit
  call void @_ZN4cvc58internal11FatalStreamD1Ev(ptr noundef nonnull align 1 dereferenceable(1) %4) #19
  unreachable

10:                                               ; preds = %6, %_ZStlsISt11char_traitsIcEERSt13basic_ostreamIcT_ES5_PKc.exit, %3
  %11 = landingpad { ptr, i32 }
          cleanup
  call void @_ZN4cvc58internal11FatalStreamD1Ev(ptr noundef nonnull align 1 dereferenceable(1) %4) #19
  unreachable
}